
_test_4:     file format elf32-i386


Disassembly of section .text:

00000000 <main>:

void worker(void *arg1, void *arg2);

int
main(int argc, char *argv[])
{
   0:	8d 4c 24 04          	lea    0x4(%esp),%ecx
   4:	83 e4 f0             	and    $0xfffffff0,%esp
   7:	ff 71 fc             	push   -0x4(%ecx)
   a:	55                   	push   %ebp
   b:	89 e5                	mov    %esp,%ebp
   d:	56                   	push   %esi
   e:	53                   	push   %ebx
   f:	51                   	push   %ecx
  10:	83 ec 0c             	sub    $0xc,%esp
   ppid = getpid();
  13:	e8 bb 05 00 00       	call   5d3 <getpid>
   void *stack, *p = malloc(PGSIZE * 2);
  18:	83 ec 0c             	sub    $0xc,%esp
  1b:	68 00 20 00 00       	push   $0x2000
   ppid = getpid();
  20:	a3 a0 0e 00 00       	mov    %eax,0xea0
   void *stack, *p = malloc(PGSIZE * 2);
  25:	e8 c6 08 00 00       	call   8f0 <malloc>
   assert(p != NULL);
  2a:	83 c4 10             	add    $0x10,%esp
  2d:	85 c0                	test   %eax,%eax
  2f:	0f 84 29 01 00 00    	je     15e <main+0x15e>
  35:	89 c3                	mov    %eax,%ebx
   if((uint)p % PGSIZE == 0)
     stack = p + 4;
  37:	8d 40 04             	lea    0x4(%eax),%eax
  3a:	f7 c3 ff 0f 00 00    	test   $0xfff,%ebx
  40:	0f 45 c3             	cmovne %ebx,%eax
   else
     stack = p;

   assert(clone(worker, 0, 0, stack) == -1);
  43:	50                   	push   %eax
  44:	6a 00                	push   $0x0
  46:	6a 00                	push   $0x0
  48:	68 c0 01 00 00       	push   $0x1c0
  4d:	e8 a1 05 00 00       	call   5f3 <clone>
  52:	83 c4 10             	add    $0x10,%esp
  55:	83 f8 ff             	cmp    $0xffffffff,%eax
  58:	74 46                	je     a0 <main+0xa0>
  5a:	6a 21                	push   $0x21
  5c:	68 e8 09 00 00       	push   $0x9e8
  61:	68 f1 09 00 00       	push   $0x9f1
  66:	6a 01                	push   $0x1
  68:	e8 53 06 00 00       	call   6c0 <printf>
  6d:	83 c4 0c             	add    $0xc,%esp
  70:	68 4c 0a 00 00       	push   $0xa4c
  75:	68 03 0a 00 00       	push   $0xa03
  7a:	6a 01                	push   $0x1
  7c:	e8 3f 06 00 00       	call   6c0 <printf>
  81:	5a                   	pop    %edx
  82:	59                   	pop    %ecx
  83:	68 17 0a 00 00       	push   $0xa17
  88:	6a 01                	push   $0x1
  8a:	e8 31 06 00 00       	call   6c0 <printf>
  8f:	5b                   	pop    %ebx
  90:	ff 35 a0 0e 00 00    	push   0xea0
  96:	e8 e8 04 00 00       	call   583 <kill>
  9b:	e8 b3 04 00 00       	call   553 <exit>

   stack = sbrk(0);
  a0:	83 ec 0c             	sub    $0xc,%esp
  a3:	6a 00                	push   $0x0
  a5:	e8 31 05 00 00       	call   5db <sbrk>
   if((uint)stack % PGSIZE)
  aa:	83 c4 10             	add    $0x10,%esp
   stack = sbrk(0);
  ad:	89 c6                	mov    %eax,%esi
   if((uint)stack % PGSIZE)
  af:	25 ff 0f 00 00       	and    $0xfff,%eax
  b4:	75 59                	jne    10f <main+0x10f>
     stack = stack + (PGSIZE - (uint)stack % PGSIZE);
   sbrk( ((uint)stack - (uint)sbrk(0)) + PGSIZE/2 );
  b6:	83 ec 0c             	sub    $0xc,%esp
  b9:	6a 00                	push   $0x0
  bb:	e8 1b 05 00 00       	call   5db <sbrk>
  c0:	89 c2                	mov    %eax,%edx
  c2:	8d 86 00 08 00 00    	lea    0x800(%esi),%eax
  c8:	29 d0                	sub    %edx,%eax
  ca:	89 04 24             	mov    %eax,(%esp)
  cd:	e8 09 05 00 00       	call   5db <sbrk>
  d2:	83 c4 10             	add    $0x10,%esp
   assert((uint)stack % PGSIZE == 0);
   assert((uint)sbrk(0) - (uint)stack == PGSIZE/2);
  d5:	83 ec 0c             	sub    $0xc,%esp
  d8:	6a 00                	push   $0x0
  da:	e8 fc 04 00 00       	call   5db <sbrk>
  df:	83 c4 10             	add    $0x10,%esp
  e2:	29 f0                	sub    %esi,%eax
  e4:	3d 00 08 00 00       	cmp    $0x800,%eax
  e9:	0f 84 8f 00 00 00    	je     17e <main+0x17e>
  ef:	6a 28                	push   $0x28
  f1:	68 e8 09 00 00       	push   $0x9e8
  f6:	68 f1 09 00 00       	push   $0x9f1
  fb:	6a 01                	push   $0x1
  fd:	e8 be 05 00 00       	call   6c0 <printf>
 102:	83 c4 0c             	add    $0xc,%esp
 105:	68 70 0a 00 00       	push   $0xa70
 10a:	e9 66 ff ff ff       	jmp    75 <main+0x75>
   sbrk( ((uint)stack - (uint)sbrk(0)) + PGSIZE/2 );
 10f:	83 ec 0c             	sub    $0xc,%esp
     stack = stack + (PGSIZE - (uint)stack % PGSIZE);
 112:	29 c6                	sub    %eax,%esi
   sbrk( ((uint)stack - (uint)sbrk(0)) + PGSIZE/2 );
 114:	6a 00                	push   $0x0
     stack = stack + (PGSIZE - (uint)stack % PGSIZE);
 116:	81 c6 00 10 00 00    	add    $0x1000,%esi
   sbrk( ((uint)stack - (uint)sbrk(0)) + PGSIZE/2 );
 11c:	e8 ba 04 00 00       	call   5db <sbrk>
 121:	89 c2                	mov    %eax,%edx
 123:	8d 86 00 08 00 00    	lea    0x800(%esi),%eax
 129:	29 d0                	sub    %edx,%eax
 12b:	89 04 24             	mov    %eax,(%esp)
 12e:	e8 a8 04 00 00       	call   5db <sbrk>
   assert((uint)stack % PGSIZE == 0);
 133:	83 c4 10             	add    $0x10,%esp
 136:	f7 c6 ff 0f 00 00    	test   $0xfff,%esi
 13c:	74 97                	je     d5 <main+0xd5>
 13e:	6a 27                	push   $0x27
 140:	68 e8 09 00 00       	push   $0x9e8
 145:	68 f1 09 00 00       	push   $0x9f1
 14a:	6a 01                	push   $0x1
 14c:	e8 6f 05 00 00       	call   6c0 <printf>
 151:	83 c4 0c             	add    $0xc,%esp
 154:	68 24 0a 00 00       	push   $0xa24
 159:	e9 17 ff ff ff       	jmp    75 <main+0x75>
   assert(p != NULL);
 15e:	6a 1b                	push   $0x1b
 160:	68 e8 09 00 00       	push   $0x9e8
 165:	68 f1 09 00 00       	push   $0x9f1
 16a:	6a 01                	push   $0x1
 16c:	e8 4f 05 00 00       	call   6c0 <printf>
 171:	83 c4 0c             	add    $0xc,%esp
 174:	68 f9 09 00 00       	push   $0x9f9
 179:	e9 f7 fe ff ff       	jmp    75 <main+0x75>

   assert(clone(worker, 0, 0, stack) == -1);
 17e:	56                   	push   %esi
 17f:	6a 00                	push   $0x0
 181:	6a 00                	push   $0x0
 183:	68 c0 01 00 00       	push   $0x1c0
 188:	e8 66 04 00 00       	call   5f3 <clone>
 18d:	83 c4 10             	add    $0x10,%esp
 190:	83 c0 01             	add    $0x1,%eax
 193:	74 07                	je     19c <main+0x19c>
 195:	6a 2a                	push   $0x2a
 197:	e9 c0 fe ff ff       	jmp    5c <main+0x5c>
   
   printf(1, "TEST PASSED\n");
 19c:	50                   	push   %eax
 19d:	50                   	push   %eax
 19e:	68 3e 0a 00 00       	push   $0xa3e
 1a3:	6a 01                	push   $0x1
 1a5:	e8 16 05 00 00       	call   6c0 <printf>
   free(p);
 1aa:	89 1c 24             	mov    %ebx,(%esp)
 1ad:	e8 ae 06 00 00       	call   860 <free>
   exit();
 1b2:	e8 9c 03 00 00       	call   553 <exit>
 1b7:	66 90                	xchg   %ax,%ax
 1b9:	66 90                	xchg   %ax,%ax
 1bb:	66 90                	xchg   %ax,%ax
 1bd:	66 90                	xchg   %ax,%ax
 1bf:	90                   	nop

000001c0 <worker>:
}

void
worker(void *arg1, void *arg2) {
 1c0:	55                   	push   %ebp
 1c1:	89 e5                	mov    %esp,%ebp
 1c3:	83 ec 08             	sub    $0x8,%esp
   exit();
 1c6:	e8 88 03 00 00       	call   553 <exit>
 1cb:	66 90                	xchg   %ax,%ax
 1cd:	66 90                	xchg   %ax,%ax
 1cf:	90                   	nop

000001d0 <thread_create>:
void *stack_addrs[64]; 
void *malloc_addrs[64];
int inUse[64]; // 1 if joined 0 if not (ie thread is created)
int 
thread_create(void (*start_routine)(void *, void *), void *arg1, void *arg2)
{
 1d0:	55                   	push   %ebp
 1d1:	89 e5                	mov    %esp,%ebp
 1d3:	56                   	push   %esi
 1d4:	53                   	push   %ebx
  for(int i = 0; i < 64; i++){
 1d5:	31 db                	xor    %ebx,%ebx
 1d7:	eb 0f                	jmp    1e8 <thread_create+0x18>
 1d9:	8d b4 26 00 00 00 00 	lea    0x0(%esi,%eiz,1),%esi
 1e0:	83 c3 01             	add    $0x1,%ebx
 1e3:	83 fb 40             	cmp    $0x40,%ebx
 1e6:	74 60                	je     248 <thread_create+0x78>
    if (inUse[i] == 0){
 1e8:	8b 04 9d c0 0e 00 00 	mov    0xec0(,%ebx,4),%eax
 1ef:	85 c0                	test   %eax,%eax
 1f1:	75 ed                	jne    1e0 <thread_create+0x10>
      void *stack = malloc(PGSIZE * 2);
 1f3:	a1 80 0e 00 00       	mov    0xe80,%eax
 1f8:	83 ec 0c             	sub    $0xc,%esp
 1fb:	01 c0                	add    %eax,%eax
 1fd:	50                   	push   %eax
 1fe:	e8 ed 06 00 00       	call   8f0 <malloc>
      malloc_addrs[i] = stack;
      // if page aligned
      if ((int)stack % PGSIZE == 0){
 203:	8b 35 80 0e 00 00    	mov    0xe80,%esi
 209:	83 c4 10             	add    $0x10,%esp
 20c:	99                   	cltd   
      malloc_addrs[i] = stack;
 20d:	89 04 9d c0 0f 00 00 	mov    %eax,0xfc0(,%ebx,4)
      void *stack = malloc(PGSIZE * 2);
 214:	89 c1                	mov    %eax,%ecx
      if ((int)stack % PGSIZE == 0){
 216:	f7 fe                	idiv   %esi
        stack += PGSIZE;
 218:	8d 04 31             	lea    (%ecx,%esi,1),%eax
 21b:	29 d6                	sub    %edx,%esi
 21d:	01 f1                	add    %esi,%ecx
 21f:	85 d2                	test   %edx,%edx
 221:	0f 44 c8             	cmove  %eax,%ecx
      } else{// else not page aligned
        // page align the stack!
        stack+= PGSIZE - ((int)stack % PGSIZE);
      }
      stack_addrs[i] = stack;
      return clone(start_routine,arg1,arg2,stack);
 224:	51                   	push   %ecx
 225:	ff 75 10             	push   0x10(%ebp)
 228:	ff 75 0c             	push   0xc(%ebp)
 22b:	ff 75 08             	push   0x8(%ebp)
      stack_addrs[i] = stack;
 22e:	89 0c 9d c0 10 00 00 	mov    %ecx,0x10c0(,%ebx,4)
      return clone(start_routine,arg1,arg2,stack);
 235:	e8 b9 03 00 00       	call   5f3 <clone>
 23a:	83 c4 10             	add    $0x10,%esp
    }
  } 
  return -1;
}
 23d:	8d 65 f8             	lea    -0x8(%ebp),%esp
 240:	5b                   	pop    %ebx
 241:	5e                   	pop    %esi
 242:	5d                   	pop    %ebp
 243:	c3                   	ret    
 244:	8d 74 26 00          	lea    0x0(%esi,%eiz,1),%esi
 248:	8d 65 f8             	lea    -0x8(%ebp),%esp
  return -1;
 24b:	b8 ff ff ff ff       	mov    $0xffffffff,%eax
}
 250:	5b                   	pop    %ebx
 251:	5e                   	pop    %esi
 252:	5d                   	pop    %ebp
 253:	c3                   	ret    
 254:	8d b4 26 00 00 00 00 	lea    0x0(%esi,%eiz,1),%esi
 25b:	8d 74 26 00          	lea    0x0(%esi,%eiz,1),%esi
 25f:	90                   	nop

00000260 <thread_join>:

int 
thread_join()
{
 260:	55                   	push   %ebp
 261:	89 e5                	mov    %esp,%ebp
 263:	56                   	push   %esi
 264:	53                   	push   %ebx
  void* stackAddr;
  int id = join(&stackAddr);
 265:	8d 45 f4             	lea    -0xc(%ebp),%eax
  for(int i = 0; i < 64; i++){
 268:	31 db                	xor    %ebx,%ebx
{
 26a:	83 ec 1c             	sub    $0x1c,%esp
  int id = join(&stackAddr);
 26d:	50                   	push   %eax
 26e:	e8 88 03 00 00       	call   5fb <join>
 273:	83 c4 10             	add    $0x10,%esp
 276:	89 c6                	mov    %eax,%esi
  for(int i = 0; i < 64; i++){
 278:	eb 0e                	jmp    288 <thread_join+0x28>
 27a:	8d b6 00 00 00 00    	lea    0x0(%esi),%esi
 280:	83 c3 01             	add    $0x1,%ebx
 283:	83 fb 40             	cmp    $0x40,%ebx
 286:	74 27                	je     2af <thread_join+0x4f>
    if (inUse[i] == 1){ // if joined free the stack 
 288:	83 3c 9d c0 0e 00 00 	cmpl   $0x1,0xec0(,%ebx,4)
 28f:	01 
 290:	75 ee                	jne    280 <thread_join+0x20>
      free(malloc_addrs[i]);
 292:	83 ec 0c             	sub    $0xc,%esp
 295:	ff 34 9d c0 0f 00 00 	push   0xfc0(,%ebx,4)
 29c:	e8 bf 05 00 00       	call   860 <free>
      inUse[i] = 0;
      break;
 2a1:	83 c4 10             	add    $0x10,%esp
      inUse[i] = 0;
 2a4:	c7 04 9d c0 0e 00 00 	movl   $0x0,0xec0(,%ebx,4)
 2ab:	00 00 00 00 
    }
  }
  return id;
}
 2af:	8d 65 f8             	lea    -0x8(%ebp),%esp
 2b2:	89 f0                	mov    %esi,%eax
 2b4:	5b                   	pop    %ebx
 2b5:	5e                   	pop    %esi
 2b6:	5d                   	pop    %ebp
 2b7:	c3                   	ret    
 2b8:	8d b4 26 00 00 00 00 	lea    0x0(%esi,%eiz,1),%esi
 2bf:	90                   	nop

000002c0 <lock_init>:

void lock_init(lock_t *lock){
 2c0:	55                   	push   %ebp
 2c1:	89 e5                	mov    %esp,%ebp
  lock->flag = 0;
 2c3:	8b 45 08             	mov    0x8(%ebp),%eax
 2c6:	c7 00 00 00 00 00    	movl   $0x0,(%eax)
}
 2cc:	5d                   	pop    %ebp
 2cd:	c3                   	ret    
 2ce:	66 90                	xchg   %ax,%ax

000002d0 <lock_acquire>:

void lock_acquire(lock_t *lock){
 2d0:	55                   	push   %ebp
xchg(volatile uint *addr, uint newval)
{
  uint result;

  // The + in "+m" denotes a read-modify-write operand.
  asm volatile("lock; xchgl %0, %1" :
 2d1:	b9 01 00 00 00       	mov    $0x1,%ecx
 2d6:	89 e5                	mov    %esp,%ebp
 2d8:	8b 55 08             	mov    0x8(%ebp),%edx
 2db:	8d 74 26 00          	lea    0x0(%esi,%eiz,1),%esi
 2df:	90                   	nop
 2e0:	89 c8                	mov    %ecx,%eax
 2e2:	f0 87 02             	lock xchg %eax,(%edx)
  while(xchg(&lock->flag, 1) != 0);
 2e5:	85 c0                	test   %eax,%eax
 2e7:	75 f7                	jne    2e0 <lock_acquire+0x10>
}
 2e9:	5d                   	pop    %ebp
 2ea:	c3                   	ret    
 2eb:	8d 74 26 00          	lea    0x0(%esi,%eiz,1),%esi
 2ef:	90                   	nop

000002f0 <lock_release>:

void lock_release(lock_t *lock){
 2f0:	55                   	push   %ebp
 2f1:	31 c0                	xor    %eax,%eax
 2f3:	89 e5                	mov    %esp,%ebp
 2f5:	8b 55 08             	mov    0x8(%ebp),%edx
 2f8:	f0 87 02             	lock xchg %eax,(%edx)
  xchg(&lock->flag, 0);
}
 2fb:	5d                   	pop    %ebp
 2fc:	c3                   	ret    
 2fd:	8d 76 00             	lea    0x0(%esi),%esi

00000300 <strcpy>:
char*
strcpy(char *s, const char *t)
{
 300:	55                   	push   %ebp
  char *os;

  os = s;
  while((*s++ = *t++) != 0)
 301:	31 c0                	xor    %eax,%eax
{
 303:	89 e5                	mov    %esp,%ebp
 305:	53                   	push   %ebx
 306:	8b 4d 08             	mov    0x8(%ebp),%ecx
 309:	8b 5d 0c             	mov    0xc(%ebp),%ebx
 30c:	8d 74 26 00          	lea    0x0(%esi,%eiz,1),%esi
  while((*s++ = *t++) != 0)
 310:	0f b6 14 03          	movzbl (%ebx,%eax,1),%edx
 314:	88 14 01             	mov    %dl,(%ecx,%eax,1)
 317:	83 c0 01             	add    $0x1,%eax
 31a:	84 d2                	test   %dl,%dl
 31c:	75 f2                	jne    310 <strcpy+0x10>
    ;
  return os;
}
 31e:	8b 5d fc             	mov    -0x4(%ebp),%ebx
 321:	89 c8                	mov    %ecx,%eax
 323:	c9                   	leave  
 324:	c3                   	ret    
 325:	8d b4 26 00 00 00 00 	lea    0x0(%esi,%eiz,1),%esi
 32c:	8d 74 26 00          	lea    0x0(%esi,%eiz,1),%esi

00000330 <strcmp>:

int
strcmp(const char *p, const char *q)
{
 330:	55                   	push   %ebp
 331:	89 e5                	mov    %esp,%ebp
 333:	53                   	push   %ebx
 334:	8b 55 08             	mov    0x8(%ebp),%edx
 337:	8b 4d 0c             	mov    0xc(%ebp),%ecx
  while(*p && *p == *q)
 33a:	0f b6 02             	movzbl (%edx),%eax
 33d:	84 c0                	test   %al,%al
 33f:	75 17                	jne    358 <strcmp+0x28>
 341:	eb 3a                	jmp    37d <strcmp+0x4d>
 343:	8d 74 26 00          	lea    0x0(%esi,%eiz,1),%esi
 347:	90                   	nop
 348:	0f b6 42 01          	movzbl 0x1(%edx),%eax
    p++, q++;
 34c:	83 c2 01             	add    $0x1,%edx
 34f:	8d 59 01             	lea    0x1(%ecx),%ebx
  while(*p && *p == *q)
 352:	84 c0                	test   %al,%al
 354:	74 1a                	je     370 <strcmp+0x40>
    p++, q++;
 356:	89 d9                	mov    %ebx,%ecx
  while(*p && *p == *q)
 358:	0f b6 19             	movzbl (%ecx),%ebx
 35b:	38 c3                	cmp    %al,%bl
 35d:	74 e9                	je     348 <strcmp+0x18>
  return (uchar)*p - (uchar)*q;
 35f:	29 d8                	sub    %ebx,%eax
}
 361:	8b 5d fc             	mov    -0x4(%ebp),%ebx
 364:	c9                   	leave  
 365:	c3                   	ret    
 366:	8d b4 26 00 00 00 00 	lea    0x0(%esi,%eiz,1),%esi
 36d:	8d 76 00             	lea    0x0(%esi),%esi
  return (uchar)*p - (uchar)*q;
 370:	0f b6 59 01          	movzbl 0x1(%ecx),%ebx
 374:	31 c0                	xor    %eax,%eax
 376:	29 d8                	sub    %ebx,%eax
}
 378:	8b 5d fc             	mov    -0x4(%ebp),%ebx
 37b:	c9                   	leave  
 37c:	c3                   	ret    
  return (uchar)*p - (uchar)*q;
 37d:	0f b6 19             	movzbl (%ecx),%ebx
 380:	31 c0                	xor    %eax,%eax
 382:	eb db                	jmp    35f <strcmp+0x2f>
 384:	8d b4 26 00 00 00 00 	lea    0x0(%esi,%eiz,1),%esi
 38b:	8d 74 26 00          	lea    0x0(%esi,%eiz,1),%esi
 38f:	90                   	nop

00000390 <strlen>:

uint
strlen(const char *s)
{
 390:	55                   	push   %ebp
 391:	89 e5                	mov    %esp,%ebp
 393:	8b 55 08             	mov    0x8(%ebp),%edx
  int n;

  for(n = 0; s[n]; n++)
 396:	80 3a 00             	cmpb   $0x0,(%edx)
 399:	74 15                	je     3b0 <strlen+0x20>
 39b:	31 c0                	xor    %eax,%eax
 39d:	8d 76 00             	lea    0x0(%esi),%esi
 3a0:	83 c0 01             	add    $0x1,%eax
 3a3:	80 3c 02 00          	cmpb   $0x0,(%edx,%eax,1)
 3a7:	89 c1                	mov    %eax,%ecx
 3a9:	75 f5                	jne    3a0 <strlen+0x10>
    ;
  return n;
}
 3ab:	89 c8                	mov    %ecx,%eax
 3ad:	5d                   	pop    %ebp
 3ae:	c3                   	ret    
 3af:	90                   	nop
  for(n = 0; s[n]; n++)
 3b0:	31 c9                	xor    %ecx,%ecx
}
 3b2:	5d                   	pop    %ebp
 3b3:	89 c8                	mov    %ecx,%eax
 3b5:	c3                   	ret    
 3b6:	8d b4 26 00 00 00 00 	lea    0x0(%esi,%eiz,1),%esi
 3bd:	8d 76 00             	lea    0x0(%esi),%esi

000003c0 <memset>:

void*
memset(void *dst, int c, uint n)
{
 3c0:	55                   	push   %ebp
 3c1:	89 e5                	mov    %esp,%ebp
 3c3:	57                   	push   %edi
 3c4:	8b 55 08             	mov    0x8(%ebp),%edx
  asm volatile("cld; rep stosb" :
 3c7:	8b 4d 10             	mov    0x10(%ebp),%ecx
 3ca:	8b 45 0c             	mov    0xc(%ebp),%eax
 3cd:	89 d7                	mov    %edx,%edi
 3cf:	fc                   	cld    
 3d0:	f3 aa                	rep stos %al,%es:(%edi)
  stosb(dst, c, n);
  return dst;
}
 3d2:	8b 7d fc             	mov    -0x4(%ebp),%edi
 3d5:	89 d0                	mov    %edx,%eax
 3d7:	c9                   	leave  
 3d8:	c3                   	ret    
 3d9:	8d b4 26 00 00 00 00 	lea    0x0(%esi,%eiz,1),%esi

000003e0 <strchr>:

char*
strchr(const char *s, char c)
{
 3e0:	55                   	push   %ebp
 3e1:	89 e5                	mov    %esp,%ebp
 3e3:	8b 45 08             	mov    0x8(%ebp),%eax
 3e6:	0f b6 4d 0c          	movzbl 0xc(%ebp),%ecx
  for(; *s; s++)
 3ea:	0f b6 10             	movzbl (%eax),%edx
 3ed:	84 d2                	test   %dl,%dl
 3ef:	75 12                	jne    403 <strchr+0x23>
 3f1:	eb 1d                	jmp    410 <strchr+0x30>
 3f3:	8d 74 26 00          	lea    0x0(%esi,%eiz,1),%esi
 3f7:	90                   	nop
 3f8:	0f b6 50 01          	movzbl 0x1(%eax),%edx
 3fc:	83 c0 01             	add    $0x1,%eax
 3ff:	84 d2                	test   %dl,%dl
 401:	74 0d                	je     410 <strchr+0x30>
    if(*s == c)
 403:	38 d1                	cmp    %dl,%cl
 405:	75 f1                	jne    3f8 <strchr+0x18>
      return (char*)s;
  return 0;
}
 407:	5d                   	pop    %ebp
 408:	c3                   	ret    
 409:	8d b4 26 00 00 00 00 	lea    0x0(%esi,%eiz,1),%esi
  return 0;
 410:	31 c0                	xor    %eax,%eax
}
 412:	5d                   	pop    %ebp
 413:	c3                   	ret    
 414:	8d b4 26 00 00 00 00 	lea    0x0(%esi,%eiz,1),%esi
 41b:	8d 74 26 00          	lea    0x0(%esi,%eiz,1),%esi
 41f:	90                   	nop

00000420 <gets>:

char*
gets(char *buf, int max)
{
 420:	55                   	push   %ebp
 421:	89 e5                	mov    %esp,%ebp
 423:	57                   	push   %edi
 424:	56                   	push   %esi
  int i, cc;
  char c;

  for(i=0; i+1 < max; ){
    cc = read(0, &c, 1);
 425:	8d 7d e7             	lea    -0x19(%ebp),%edi
{
 428:	53                   	push   %ebx
  for(i=0; i+1 < max; ){
 429:	31 db                	xor    %ebx,%ebx
{
 42b:	83 ec 1c             	sub    $0x1c,%esp
  for(i=0; i+1 < max; ){
 42e:	eb 27                	jmp    457 <gets+0x37>
    cc = read(0, &c, 1);
 430:	83 ec 04             	sub    $0x4,%esp
 433:	6a 01                	push   $0x1
 435:	57                   	push   %edi
 436:	6a 00                	push   $0x0
 438:	e8 2e 01 00 00       	call   56b <read>
    if(cc < 1)
 43d:	83 c4 10             	add    $0x10,%esp
 440:	85 c0                	test   %eax,%eax
 442:	7e 1d                	jle    461 <gets+0x41>
      break;
    buf[i++] = c;
 444:	0f b6 45 e7          	movzbl -0x19(%ebp),%eax
 448:	8b 55 08             	mov    0x8(%ebp),%edx
 44b:	88 44 1a ff          	mov    %al,-0x1(%edx,%ebx,1)
    if(c == '\n' || c == '\r')
 44f:	3c 0a                	cmp    $0xa,%al
 451:	74 1d                	je     470 <gets+0x50>
 453:	3c 0d                	cmp    $0xd,%al
 455:	74 19                	je     470 <gets+0x50>
  for(i=0; i+1 < max; ){
 457:	89 de                	mov    %ebx,%esi
 459:	83 c3 01             	add    $0x1,%ebx
 45c:	3b 5d 0c             	cmp    0xc(%ebp),%ebx
 45f:	7c cf                	jl     430 <gets+0x10>
      break;
  }
  buf[i] = '\0';
 461:	8b 45 08             	mov    0x8(%ebp),%eax
 464:	c6 04 30 00          	movb   $0x0,(%eax,%esi,1)
  return buf;
}
 468:	8d 65 f4             	lea    -0xc(%ebp),%esp
 46b:	5b                   	pop    %ebx
 46c:	5e                   	pop    %esi
 46d:	5f                   	pop    %edi
 46e:	5d                   	pop    %ebp
 46f:	c3                   	ret    
  buf[i] = '\0';
 470:	8b 45 08             	mov    0x8(%ebp),%eax
 473:	89 de                	mov    %ebx,%esi
 475:	c6 04 30 00          	movb   $0x0,(%eax,%esi,1)
}
 479:	8d 65 f4             	lea    -0xc(%ebp),%esp
 47c:	5b                   	pop    %ebx
 47d:	5e                   	pop    %esi
 47e:	5f                   	pop    %edi
 47f:	5d                   	pop    %ebp
 480:	c3                   	ret    
 481:	8d b4 26 00 00 00 00 	lea    0x0(%esi,%eiz,1),%esi
 488:	8d b4 26 00 00 00 00 	lea    0x0(%esi,%eiz,1),%esi
 48f:	90                   	nop

00000490 <stat>:

int
stat(const char *n, struct stat *st)
{
 490:	55                   	push   %ebp
 491:	89 e5                	mov    %esp,%ebp
 493:	56                   	push   %esi
 494:	53                   	push   %ebx
  int fd;
  int r;

  fd = open(n, O_RDONLY);
 495:	83 ec 08             	sub    $0x8,%esp
 498:	6a 00                	push   $0x0
 49a:	ff 75 08             	push   0x8(%ebp)
 49d:	e8 f1 00 00 00       	call   593 <open>
  if(fd < 0)
 4a2:	83 c4 10             	add    $0x10,%esp
 4a5:	85 c0                	test   %eax,%eax
 4a7:	78 27                	js     4d0 <stat+0x40>
    return -1;
  r = fstat(fd, st);
 4a9:	83 ec 08             	sub    $0x8,%esp
 4ac:	ff 75 0c             	push   0xc(%ebp)
 4af:	89 c3                	mov    %eax,%ebx
 4b1:	50                   	push   %eax
 4b2:	e8 f4 00 00 00       	call   5ab <fstat>
  close(fd);
 4b7:	89 1c 24             	mov    %ebx,(%esp)
  r = fstat(fd, st);
 4ba:	89 c6                	mov    %eax,%esi
  close(fd);
 4bc:	e8 ba 00 00 00       	call   57b <close>
  return r;
 4c1:	83 c4 10             	add    $0x10,%esp
}
 4c4:	8d 65 f8             	lea    -0x8(%ebp),%esp
 4c7:	89 f0                	mov    %esi,%eax
 4c9:	5b                   	pop    %ebx
 4ca:	5e                   	pop    %esi
 4cb:	5d                   	pop    %ebp
 4cc:	c3                   	ret    
 4cd:	8d 76 00             	lea    0x0(%esi),%esi
    return -1;
 4d0:	be ff ff ff ff       	mov    $0xffffffff,%esi
 4d5:	eb ed                	jmp    4c4 <stat+0x34>
 4d7:	8d b4 26 00 00 00 00 	lea    0x0(%esi,%eiz,1),%esi
 4de:	66 90                	xchg   %ax,%ax

000004e0 <atoi>:

int
atoi(const char *s)
{
 4e0:	55                   	push   %ebp
 4e1:	89 e5                	mov    %esp,%ebp
 4e3:	53                   	push   %ebx
 4e4:	8b 55 08             	mov    0x8(%ebp),%edx
  int n;

  n = 0;
  while('0' <= *s && *s <= '9')
 4e7:	0f be 02             	movsbl (%edx),%eax
 4ea:	8d 48 d0             	lea    -0x30(%eax),%ecx
 4ed:	80 f9 09             	cmp    $0x9,%cl
  n = 0;
 4f0:	b9 00 00 00 00       	mov    $0x0,%ecx
  while('0' <= *s && *s <= '9')
 4f5:	77 1e                	ja     515 <atoi+0x35>
 4f7:	8d b4 26 00 00 00 00 	lea    0x0(%esi,%eiz,1),%esi
 4fe:	66 90                	xchg   %ax,%ax
    n = n*10 + *s++ - '0';
 500:	83 c2 01             	add    $0x1,%edx
 503:	8d 0c 89             	lea    (%ecx,%ecx,4),%ecx
 506:	8d 4c 48 d0          	lea    -0x30(%eax,%ecx,2),%ecx
  while('0' <= *s && *s <= '9')
 50a:	0f be 02             	movsbl (%edx),%eax
 50d:	8d 58 d0             	lea    -0x30(%eax),%ebx
 510:	80 fb 09             	cmp    $0x9,%bl
 513:	76 eb                	jbe    500 <atoi+0x20>
  return n;
}
 515:	8b 5d fc             	mov    -0x4(%ebp),%ebx
 518:	89 c8                	mov    %ecx,%eax
 51a:	c9                   	leave  
 51b:	c3                   	ret    
 51c:	8d 74 26 00          	lea    0x0(%esi,%eiz,1),%esi

00000520 <memmove>:

void*
memmove(void *vdst, const void *vsrc, int n)
{
 520:	55                   	push   %ebp
 521:	89 e5                	mov    %esp,%ebp
 523:	57                   	push   %edi
 524:	8b 45 10             	mov    0x10(%ebp),%eax
 527:	8b 55 08             	mov    0x8(%ebp),%edx
 52a:	56                   	push   %esi
 52b:	8b 75 0c             	mov    0xc(%ebp),%esi
  char *dst;
  const char *src;

  dst = vdst;
  src = vsrc;
  while(n-- > 0)
 52e:	85 c0                	test   %eax,%eax
 530:	7e 13                	jle    545 <memmove+0x25>
 532:	01 d0                	add    %edx,%eax
  dst = vdst;
 534:	89 d7                	mov    %edx,%edi
 536:	8d b4 26 00 00 00 00 	lea    0x0(%esi,%eiz,1),%esi
 53d:	8d 76 00             	lea    0x0(%esi),%esi
    *dst++ = *src++;
 540:	a4                   	movsb  %ds:(%esi),%es:(%edi)
  while(n-- > 0)
 541:	39 f8                	cmp    %edi,%eax
 543:	75 fb                	jne    540 <memmove+0x20>
  return vdst;
}
 545:	5e                   	pop    %esi
 546:	89 d0                	mov    %edx,%eax
 548:	5f                   	pop    %edi
 549:	5d                   	pop    %ebp
 54a:	c3                   	ret    

0000054b <fork>:
  name: \
    movl $SYS_ ## name, %eax; \
    int $T_SYSCALL; \
    ret

SYSCALL(fork)
 54b:	b8 01 00 00 00       	mov    $0x1,%eax
 550:	cd 40                	int    $0x40
 552:	c3                   	ret    

00000553 <exit>:
SYSCALL(exit)
 553:	b8 02 00 00 00       	mov    $0x2,%eax
 558:	cd 40                	int    $0x40
 55a:	c3                   	ret    

0000055b <wait>:
SYSCALL(wait)
 55b:	b8 03 00 00 00       	mov    $0x3,%eax
 560:	cd 40                	int    $0x40
 562:	c3                   	ret    

00000563 <pipe>:
SYSCALL(pipe)
 563:	b8 04 00 00 00       	mov    $0x4,%eax
 568:	cd 40                	int    $0x40
 56a:	c3                   	ret    

0000056b <read>:
SYSCALL(read)
 56b:	b8 05 00 00 00       	mov    $0x5,%eax
 570:	cd 40                	int    $0x40
 572:	c3                   	ret    

00000573 <write>:
SYSCALL(write)
 573:	b8 10 00 00 00       	mov    $0x10,%eax
 578:	cd 40                	int    $0x40
 57a:	c3                   	ret    

0000057b <close>:
SYSCALL(close)
 57b:	b8 15 00 00 00       	mov    $0x15,%eax
 580:	cd 40                	int    $0x40
 582:	c3                   	ret    

00000583 <kill>:
SYSCALL(kill)
 583:	b8 06 00 00 00       	mov    $0x6,%eax
 588:	cd 40                	int    $0x40
 58a:	c3                   	ret    

0000058b <exec>:
SYSCALL(exec)
 58b:	b8 07 00 00 00       	mov    $0x7,%eax
 590:	cd 40                	int    $0x40
 592:	c3                   	ret    

00000593 <open>:
SYSCALL(open)
 593:	b8 0f 00 00 00       	mov    $0xf,%eax
 598:	cd 40                	int    $0x40
 59a:	c3                   	ret    

0000059b <mknod>:
SYSCALL(mknod)
 59b:	b8 11 00 00 00       	mov    $0x11,%eax
 5a0:	cd 40                	int    $0x40
 5a2:	c3                   	ret    

000005a3 <unlink>:
SYSCALL(unlink)
 5a3:	b8 12 00 00 00       	mov    $0x12,%eax
 5a8:	cd 40                	int    $0x40
 5aa:	c3                   	ret    

000005ab <fstat>:
SYSCALL(fstat)
 5ab:	b8 08 00 00 00       	mov    $0x8,%eax
 5b0:	cd 40                	int    $0x40
 5b2:	c3                   	ret    

000005b3 <link>:
SYSCALL(link)
 5b3:	b8 13 00 00 00       	mov    $0x13,%eax
 5b8:	cd 40                	int    $0x40
 5ba:	c3                   	ret    

000005bb <mkdir>:
SYSCALL(mkdir)
 5bb:	b8 14 00 00 00       	mov    $0x14,%eax
 5c0:	cd 40                	int    $0x40
 5c2:	c3                   	ret    

000005c3 <chdir>:
SYSCALL(chdir)
 5c3:	b8 09 00 00 00       	mov    $0x9,%eax
 5c8:	cd 40                	int    $0x40
 5ca:	c3                   	ret    

000005cb <dup>:
SYSCALL(dup)
 5cb:	b8 0a 00 00 00       	mov    $0xa,%eax
 5d0:	cd 40                	int    $0x40
 5d2:	c3                   	ret    

000005d3 <getpid>:
SYSCALL(getpid)
 5d3:	b8 0b 00 00 00       	mov    $0xb,%eax
 5d8:	cd 40                	int    $0x40
 5da:	c3                   	ret    

000005db <sbrk>:
SYSCALL(sbrk)
 5db:	b8 0c 00 00 00       	mov    $0xc,%eax
 5e0:	cd 40                	int    $0x40
 5e2:	c3                   	ret    

000005e3 <sleep>:
SYSCALL(sleep)
 5e3:	b8 0d 00 00 00       	mov    $0xd,%eax
 5e8:	cd 40                	int    $0x40
 5ea:	c3                   	ret    

000005eb <uptime>:
SYSCALL(uptime)
 5eb:	b8 0e 00 00 00       	mov    $0xe,%eax
 5f0:	cd 40                	int    $0x40
 5f2:	c3                   	ret    

000005f3 <clone>:
SYSCALL(clone)
 5f3:	b8 16 00 00 00       	mov    $0x16,%eax
 5f8:	cd 40                	int    $0x40
 5fa:	c3                   	ret    

000005fb <join>:
SYSCALL(join)
 5fb:	b8 17 00 00 00       	mov    $0x17,%eax
 600:	cd 40                	int    $0x40
 602:	c3                   	ret    
 603:	66 90                	xchg   %ax,%ax
 605:	66 90                	xchg   %ax,%ax
 607:	66 90                	xchg   %ax,%ax
 609:	66 90                	xchg   %ax,%ax
 60b:	66 90                	xchg   %ax,%ax
 60d:	66 90                	xchg   %ax,%ax
 60f:	90                   	nop

00000610 <printint>:
  write(fd, &c, 1);
}

static void
printint(int fd, int xx, int base, int sgn)
{
 610:	55                   	push   %ebp
 611:	89 e5                	mov    %esp,%ebp
 613:	57                   	push   %edi
 614:	56                   	push   %esi
 615:	53                   	push   %ebx
 616:	83 ec 3c             	sub    $0x3c,%esp
 619:	89 4d c4             	mov    %ecx,-0x3c(%ebp)
  uint x;

  neg = 0;
  if(sgn && xx < 0){
    neg = 1;
    x = -xx;
 61c:	89 d1                	mov    %edx,%ecx
{
 61e:	89 45 b8             	mov    %eax,-0x48(%ebp)
  if(sgn && xx < 0){
 621:	85 d2                	test   %edx,%edx
 623:	0f 89 7f 00 00 00    	jns    6a8 <printint+0x98>
 629:	f6 45 08 01          	testb  $0x1,0x8(%ebp)
 62d:	74 79                	je     6a8 <printint+0x98>
    neg = 1;
 62f:	c7 45 bc 01 00 00 00 	movl   $0x1,-0x44(%ebp)
    x = -xx;
 636:	f7 d9                	neg    %ecx
  } else {
    x = xx;
  }

  i = 0;
 638:	31 db                	xor    %ebx,%ebx
 63a:	8d 75 d7             	lea    -0x29(%ebp),%esi
 63d:	8d 76 00             	lea    0x0(%esi),%esi
  do{
    buf[i++] = digits[x % base];
 640:	89 c8                	mov    %ecx,%eax
 642:	31 d2                	xor    %edx,%edx
 644:	89 cf                	mov    %ecx,%edi
 646:	f7 75 c4             	divl   -0x3c(%ebp)
 649:	0f b6 92 f8 0a 00 00 	movzbl 0xaf8(%edx),%edx
 650:	89 45 c0             	mov    %eax,-0x40(%ebp)
 653:	89 d8                	mov    %ebx,%eax
 655:	8d 5b 01             	lea    0x1(%ebx),%ebx
  }while((x /= base) != 0);
 658:	8b 4d c0             	mov    -0x40(%ebp),%ecx
    buf[i++] = digits[x % base];
 65b:	88 14 1e             	mov    %dl,(%esi,%ebx,1)
  }while((x /= base) != 0);
 65e:	39 7d c4             	cmp    %edi,-0x3c(%ebp)
 661:	76 dd                	jbe    640 <printint+0x30>
  if(neg)
 663:	8b 4d bc             	mov    -0x44(%ebp),%ecx
 666:	85 c9                	test   %ecx,%ecx
 668:	74 0c                	je     676 <printint+0x66>
    buf[i++] = '-';
 66a:	c6 44 1d d8 2d       	movb   $0x2d,-0x28(%ebp,%ebx,1)
    buf[i++] = digits[x % base];
 66f:	89 d8                	mov    %ebx,%eax
    buf[i++] = '-';
 671:	ba 2d 00 00 00       	mov    $0x2d,%edx

  while(--i >= 0)
 676:	8b 7d b8             	mov    -0x48(%ebp),%edi
 679:	8d 5c 05 d7          	lea    -0x29(%ebp,%eax,1),%ebx
 67d:	eb 07                	jmp    686 <printint+0x76>
 67f:	90                   	nop
    putc(fd, buf[i]);
 680:	0f b6 13             	movzbl (%ebx),%edx
 683:	83 eb 01             	sub    $0x1,%ebx
  write(fd, &c, 1);
 686:	83 ec 04             	sub    $0x4,%esp
 689:	88 55 d7             	mov    %dl,-0x29(%ebp)
 68c:	6a 01                	push   $0x1
 68e:	56                   	push   %esi
 68f:	57                   	push   %edi
 690:	e8 de fe ff ff       	call   573 <write>
  while(--i >= 0)
 695:	83 c4 10             	add    $0x10,%esp
 698:	39 de                	cmp    %ebx,%esi
 69a:	75 e4                	jne    680 <printint+0x70>
}
 69c:	8d 65 f4             	lea    -0xc(%ebp),%esp
 69f:	5b                   	pop    %ebx
 6a0:	5e                   	pop    %esi
 6a1:	5f                   	pop    %edi
 6a2:	5d                   	pop    %ebp
 6a3:	c3                   	ret    
 6a4:	8d 74 26 00          	lea    0x0(%esi,%eiz,1),%esi
  neg = 0;
 6a8:	c7 45 bc 00 00 00 00 	movl   $0x0,-0x44(%ebp)
 6af:	eb 87                	jmp    638 <printint+0x28>
 6b1:	8d b4 26 00 00 00 00 	lea    0x0(%esi,%eiz,1),%esi
 6b8:	8d b4 26 00 00 00 00 	lea    0x0(%esi,%eiz,1),%esi
 6bf:	90                   	nop

000006c0 <printf>:

// Print to the given fd. Only understands %d, %x, %p, %s.
void
printf(int fd, const char *fmt, ...)
{
 6c0:	55                   	push   %ebp
 6c1:	89 e5                	mov    %esp,%ebp
 6c3:	57                   	push   %edi
 6c4:	56                   	push   %esi
 6c5:	53                   	push   %ebx
 6c6:	83 ec 2c             	sub    $0x2c,%esp
  int c, i, state;
  uint *ap;

  state = 0;
  ap = (uint*)(void*)&fmt + 1;
  for(i = 0; fmt[i]; i++){
 6c9:	8b 5d 0c             	mov    0xc(%ebp),%ebx
{
 6cc:	8b 75 08             	mov    0x8(%ebp),%esi
  for(i = 0; fmt[i]; i++){
 6cf:	0f b6 13             	movzbl (%ebx),%edx
 6d2:	84 d2                	test   %dl,%dl
 6d4:	74 6a                	je     740 <printf+0x80>
  ap = (uint*)(void*)&fmt + 1;
 6d6:	8d 45 10             	lea    0x10(%ebp),%eax
 6d9:	83 c3 01             	add    $0x1,%ebx
  write(fd, &c, 1);
 6dc:	8d 7d e7             	lea    -0x19(%ebp),%edi
  state = 0;
 6df:	31 c9                	xor    %ecx,%ecx
  ap = (uint*)(void*)&fmt + 1;
 6e1:	89 45 d0             	mov    %eax,-0x30(%ebp)
 6e4:	eb 36                	jmp    71c <printf+0x5c>
 6e6:	8d b4 26 00 00 00 00 	lea    0x0(%esi,%eiz,1),%esi
 6ed:	8d 76 00             	lea    0x0(%esi),%esi
 6f0:	89 4d d4             	mov    %ecx,-0x2c(%ebp)
    c = fmt[i] & 0xff;
    if(state == 0){
      if(c == '%'){
        state = '%';
 6f3:	b9 25 00 00 00       	mov    $0x25,%ecx
      if(c == '%'){
 6f8:	83 f8 25             	cmp    $0x25,%eax
 6fb:	74 15                	je     712 <printf+0x52>
  write(fd, &c, 1);
 6fd:	83 ec 04             	sub    $0x4,%esp
 700:	88 55 e7             	mov    %dl,-0x19(%ebp)
 703:	6a 01                	push   $0x1
 705:	57                   	push   %edi
 706:	56                   	push   %esi
 707:	e8 67 fe ff ff       	call   573 <write>
 70c:	8b 4d d4             	mov    -0x2c(%ebp),%ecx
      } else {
        putc(fd, c);
 70f:	83 c4 10             	add    $0x10,%esp
  for(i = 0; fmt[i]; i++){
 712:	0f b6 13             	movzbl (%ebx),%edx
 715:	83 c3 01             	add    $0x1,%ebx
 718:	84 d2                	test   %dl,%dl
 71a:	74 24                	je     740 <printf+0x80>
    c = fmt[i] & 0xff;
 71c:	0f b6 c2             	movzbl %dl,%eax
    if(state == 0){
 71f:	85 c9                	test   %ecx,%ecx
 721:	74 cd                	je     6f0 <printf+0x30>
      }
    } else if(state == '%'){
 723:	83 f9 25             	cmp    $0x25,%ecx
 726:	75 ea                	jne    712 <printf+0x52>
      if(c == 'd'){
 728:	83 f8 25             	cmp    $0x25,%eax
 72b:	0f 84 07 01 00 00    	je     838 <printf+0x178>
 731:	83 e8 63             	sub    $0x63,%eax
 734:	83 f8 15             	cmp    $0x15,%eax
 737:	77 17                	ja     750 <printf+0x90>
 739:	ff 24 85 a0 0a 00 00 	jmp    *0xaa0(,%eax,4)
        putc(fd, c);
      }
      state = 0;
    }
  }
}
 740:	8d 65 f4             	lea    -0xc(%ebp),%esp
 743:	5b                   	pop    %ebx
 744:	5e                   	pop    %esi
 745:	5f                   	pop    %edi
 746:	5d                   	pop    %ebp
 747:	c3                   	ret    
 748:	8d b4 26 00 00 00 00 	lea    0x0(%esi,%eiz,1),%esi
 74f:	90                   	nop
  write(fd, &c, 1);
 750:	83 ec 04             	sub    $0x4,%esp
 753:	88 55 d4             	mov    %dl,-0x2c(%ebp)
 756:	6a 01                	push   $0x1
 758:	57                   	push   %edi
 759:	56                   	push   %esi
 75a:	c6 45 e7 25          	movb   $0x25,-0x19(%ebp)
 75e:	e8 10 fe ff ff       	call   573 <write>
        putc(fd, c);
 763:	0f b6 55 d4          	movzbl -0x2c(%ebp),%edx
  write(fd, &c, 1);
 767:	83 c4 0c             	add    $0xc,%esp
 76a:	88 55 e7             	mov    %dl,-0x19(%ebp)
 76d:	6a 01                	push   $0x1
 76f:	57                   	push   %edi
 770:	56                   	push   %esi
 771:	e8 fd fd ff ff       	call   573 <write>
        putc(fd, c);
 776:	83 c4 10             	add    $0x10,%esp
      state = 0;
 779:	31 c9                	xor    %ecx,%ecx
 77b:	eb 95                	jmp    712 <printf+0x52>
 77d:	8d 76 00             	lea    0x0(%esi),%esi
        printint(fd, *ap, 16, 0);
 780:	83 ec 0c             	sub    $0xc,%esp
 783:	b9 10 00 00 00       	mov    $0x10,%ecx
 788:	6a 00                	push   $0x0
 78a:	8b 45 d0             	mov    -0x30(%ebp),%eax
 78d:	8b 10                	mov    (%eax),%edx
 78f:	89 f0                	mov    %esi,%eax
 791:	e8 7a fe ff ff       	call   610 <printint>
        ap++;
 796:	83 45 d0 04          	addl   $0x4,-0x30(%ebp)
 79a:	83 c4 10             	add    $0x10,%esp
      state = 0;
 79d:	31 c9                	xor    %ecx,%ecx
 79f:	e9 6e ff ff ff       	jmp    712 <printf+0x52>
 7a4:	8d 74 26 00          	lea    0x0(%esi,%eiz,1),%esi
        s = (char*)*ap;
 7a8:	8b 45 d0             	mov    -0x30(%ebp),%eax
 7ab:	8b 10                	mov    (%eax),%edx
        ap++;
 7ad:	83 c0 04             	add    $0x4,%eax
 7b0:	89 45 d0             	mov    %eax,-0x30(%ebp)
        if(s == 0)
 7b3:	85 d2                	test   %edx,%edx
 7b5:	0f 84 8d 00 00 00    	je     848 <printf+0x188>
        while(*s != 0){
 7bb:	0f b6 02             	movzbl (%edx),%eax
      state = 0;
 7be:	31 c9                	xor    %ecx,%ecx
        while(*s != 0){
 7c0:	84 c0                	test   %al,%al
 7c2:	0f 84 4a ff ff ff    	je     712 <printf+0x52>
 7c8:	89 5d d4             	mov    %ebx,-0x2c(%ebp)
 7cb:	89 d3                	mov    %edx,%ebx
 7cd:	8d 76 00             	lea    0x0(%esi),%esi
  write(fd, &c, 1);
 7d0:	83 ec 04             	sub    $0x4,%esp
          s++;
 7d3:	83 c3 01             	add    $0x1,%ebx
 7d6:	88 45 e7             	mov    %al,-0x19(%ebp)
  write(fd, &c, 1);
 7d9:	6a 01                	push   $0x1
 7db:	57                   	push   %edi
 7dc:	56                   	push   %esi
 7dd:	e8 91 fd ff ff       	call   573 <write>
        while(*s != 0){
 7e2:	0f b6 03             	movzbl (%ebx),%eax
 7e5:	83 c4 10             	add    $0x10,%esp
 7e8:	84 c0                	test   %al,%al
 7ea:	75 e4                	jne    7d0 <printf+0x110>
      state = 0;
 7ec:	8b 5d d4             	mov    -0x2c(%ebp),%ebx
 7ef:	31 c9                	xor    %ecx,%ecx
 7f1:	e9 1c ff ff ff       	jmp    712 <printf+0x52>
 7f6:	8d b4 26 00 00 00 00 	lea    0x0(%esi,%eiz,1),%esi
 7fd:	8d 76 00             	lea    0x0(%esi),%esi
        printint(fd, *ap, 10, 1);
 800:	83 ec 0c             	sub    $0xc,%esp
 803:	b9 0a 00 00 00       	mov    $0xa,%ecx
 808:	6a 01                	push   $0x1
 80a:	e9 7b ff ff ff       	jmp    78a <printf+0xca>
 80f:	90                   	nop
        putc(fd, *ap);
 810:	8b 45 d0             	mov    -0x30(%ebp),%eax
  write(fd, &c, 1);
 813:	83 ec 04             	sub    $0x4,%esp
        putc(fd, *ap);
 816:	8b 00                	mov    (%eax),%eax
  write(fd, &c, 1);
 818:	6a 01                	push   $0x1
 81a:	57                   	push   %edi
 81b:	56                   	push   %esi
        putc(fd, *ap);
 81c:	88 45 e7             	mov    %al,-0x19(%ebp)
  write(fd, &c, 1);
 81f:	e8 4f fd ff ff       	call   573 <write>
        ap++;
 824:	83 45 d0 04          	addl   $0x4,-0x30(%ebp)
 828:	83 c4 10             	add    $0x10,%esp
      state = 0;
 82b:	31 c9                	xor    %ecx,%ecx
 82d:	e9 e0 fe ff ff       	jmp    712 <printf+0x52>
 832:	8d b6 00 00 00 00    	lea    0x0(%esi),%esi
        putc(fd, c);
 838:	88 55 e7             	mov    %dl,-0x19(%ebp)
  write(fd, &c, 1);
 83b:	83 ec 04             	sub    $0x4,%esp
 83e:	e9 2a ff ff ff       	jmp    76d <printf+0xad>
 843:	8d 74 26 00          	lea    0x0(%esi,%eiz,1),%esi
 847:	90                   	nop
          s = "(null)";
 848:	ba 98 0a 00 00       	mov    $0xa98,%edx
        while(*s != 0){
 84d:	89 5d d4             	mov    %ebx,-0x2c(%ebp)
 850:	b8 28 00 00 00       	mov    $0x28,%eax
 855:	89 d3                	mov    %edx,%ebx
 857:	e9 74 ff ff ff       	jmp    7d0 <printf+0x110>
 85c:	66 90                	xchg   %ax,%ax
 85e:	66 90                	xchg   %ax,%ax

00000860 <free>:
static Header base;
static Header *freep;

void
free(void *ap)
{
 860:	55                   	push   %ebp
  Header *bp, *p;

  bp = (Header*)ap - 1;
  for(p = freep; !(bp > p && bp < p->s.ptr); p = p->s.ptr)
 861:	a1 c0 11 00 00       	mov    0x11c0,%eax
{
 866:	89 e5                	mov    %esp,%ebp
 868:	57                   	push   %edi
 869:	56                   	push   %esi
 86a:	53                   	push   %ebx
 86b:	8b 5d 08             	mov    0x8(%ebp),%ebx
  bp = (Header*)ap - 1;
 86e:	8d 4b f8             	lea    -0x8(%ebx),%ecx
  for(p = freep; !(bp > p && bp < p->s.ptr); p = p->s.ptr)
 871:	8d b4 26 00 00 00 00 	lea    0x0(%esi,%eiz,1),%esi
 878:	89 c2                	mov    %eax,%edx
 87a:	8b 00                	mov    (%eax),%eax
 87c:	39 ca                	cmp    %ecx,%edx
 87e:	73 30                	jae    8b0 <free+0x50>
 880:	39 c1                	cmp    %eax,%ecx
 882:	72 04                	jb     888 <free+0x28>
    if(p >= p->s.ptr && (bp > p || bp < p->s.ptr))
 884:	39 c2                	cmp    %eax,%edx
 886:	72 f0                	jb     878 <free+0x18>
      break;
  if(bp + bp->s.size == p->s.ptr){
 888:	8b 73 fc             	mov    -0x4(%ebx),%esi
 88b:	8d 3c f1             	lea    (%ecx,%esi,8),%edi
 88e:	39 f8                	cmp    %edi,%eax
 890:	74 30                	je     8c2 <free+0x62>
    bp->s.size += p->s.ptr->s.size;
    bp->s.ptr = p->s.ptr->s.ptr;
 892:	89 43 f8             	mov    %eax,-0x8(%ebx)
  } else
    bp->s.ptr = p->s.ptr;
  if(p + p->s.size == bp){
 895:	8b 42 04             	mov    0x4(%edx),%eax
 898:	8d 34 c2             	lea    (%edx,%eax,8),%esi
 89b:	39 f1                	cmp    %esi,%ecx
 89d:	74 3a                	je     8d9 <free+0x79>
    p->s.size += bp->s.size;
    p->s.ptr = bp->s.ptr;
 89f:	89 0a                	mov    %ecx,(%edx)
  } else
    p->s.ptr = bp;
  freep = p;
}
 8a1:	5b                   	pop    %ebx
  freep = p;
 8a2:	89 15 c0 11 00 00    	mov    %edx,0x11c0
}
 8a8:	5e                   	pop    %esi
 8a9:	5f                   	pop    %edi
 8aa:	5d                   	pop    %ebp
 8ab:	c3                   	ret    
 8ac:	8d 74 26 00          	lea    0x0(%esi,%eiz,1),%esi
    if(p >= p->s.ptr && (bp > p || bp < p->s.ptr))
 8b0:	39 c2                	cmp    %eax,%edx
 8b2:	72 c4                	jb     878 <free+0x18>
 8b4:	39 c1                	cmp    %eax,%ecx
 8b6:	73 c0                	jae    878 <free+0x18>
  if(bp + bp->s.size == p->s.ptr){
 8b8:	8b 73 fc             	mov    -0x4(%ebx),%esi
 8bb:	8d 3c f1             	lea    (%ecx,%esi,8),%edi
 8be:	39 f8                	cmp    %edi,%eax
 8c0:	75 d0                	jne    892 <free+0x32>
    bp->s.size += p->s.ptr->s.size;
 8c2:	03 70 04             	add    0x4(%eax),%esi
 8c5:	89 73 fc             	mov    %esi,-0x4(%ebx)
    bp->s.ptr = p->s.ptr->s.ptr;
 8c8:	8b 02                	mov    (%edx),%eax
 8ca:	8b 00                	mov    (%eax),%eax
 8cc:	89 43 f8             	mov    %eax,-0x8(%ebx)
  if(p + p->s.size == bp){
 8cf:	8b 42 04             	mov    0x4(%edx),%eax
 8d2:	8d 34 c2             	lea    (%edx,%eax,8),%esi
 8d5:	39 f1                	cmp    %esi,%ecx
 8d7:	75 c6                	jne    89f <free+0x3f>
    p->s.size += bp->s.size;
 8d9:	03 43 fc             	add    -0x4(%ebx),%eax
  freep = p;
 8dc:	89 15 c0 11 00 00    	mov    %edx,0x11c0
    p->s.size += bp->s.size;
 8e2:	89 42 04             	mov    %eax,0x4(%edx)
    p->s.ptr = bp->s.ptr;
 8e5:	8b 4b f8             	mov    -0x8(%ebx),%ecx
 8e8:	89 0a                	mov    %ecx,(%edx)
}
 8ea:	5b                   	pop    %ebx
 8eb:	5e                   	pop    %esi
 8ec:	5f                   	pop    %edi
 8ed:	5d                   	pop    %ebp
 8ee:	c3                   	ret    
 8ef:	90                   	nop

000008f0 <malloc>:
  return freep;
}

void*
malloc(uint nbytes)
{
 8f0:	55                   	push   %ebp
 8f1:	89 e5                	mov    %esp,%ebp
 8f3:	57                   	push   %edi
 8f4:	56                   	push   %esi
 8f5:	53                   	push   %ebx
 8f6:	83 ec 1c             	sub    $0x1c,%esp
  Header *p, *prevp;
  uint nunits;

  nunits = (nbytes + sizeof(Header) - 1)/sizeof(Header) + 1;
 8f9:	8b 45 08             	mov    0x8(%ebp),%eax
  if((prevp = freep) == 0){
 8fc:	8b 3d c0 11 00 00    	mov    0x11c0,%edi
  nunits = (nbytes + sizeof(Header) - 1)/sizeof(Header) + 1;
 902:	8d 70 07             	lea    0x7(%eax),%esi
 905:	c1 ee 03             	shr    $0x3,%esi
 908:	83 c6 01             	add    $0x1,%esi
  if((prevp = freep) == 0){
 90b:	85 ff                	test   %edi,%edi
 90d:	0f 84 9d 00 00 00    	je     9b0 <malloc+0xc0>
    base.s.ptr = freep = prevp = &base;
    base.s.size = 0;
  }
  for(p = prevp->s.ptr; ; prevp = p, p = p->s.ptr){
 913:	8b 17                	mov    (%edi),%edx
    if(p->s.size >= nunits){
 915:	8b 4a 04             	mov    0x4(%edx),%ecx
 918:	39 f1                	cmp    %esi,%ecx
 91a:	73 6a                	jae    986 <malloc+0x96>
 91c:	bb 00 10 00 00       	mov    $0x1000,%ebx
 921:	39 de                	cmp    %ebx,%esi
 923:	0f 43 de             	cmovae %esi,%ebx
  p = sbrk(nu * sizeof(Header));
 926:	8d 04 dd 00 00 00 00 	lea    0x0(,%ebx,8),%eax
 92d:	89 45 e4             	mov    %eax,-0x1c(%ebp)
 930:	eb 17                	jmp    949 <malloc+0x59>
 932:	8d b6 00 00 00 00    	lea    0x0(%esi),%esi
  for(p = prevp->s.ptr; ; prevp = p, p = p->s.ptr){
 938:	8b 02                	mov    (%edx),%eax
    if(p->s.size >= nunits){
 93a:	8b 48 04             	mov    0x4(%eax),%ecx
 93d:	39 f1                	cmp    %esi,%ecx
 93f:	73 4f                	jae    990 <malloc+0xa0>
        p->s.size = nunits;
      }
      freep = prevp;
      return (void*)(p + 1);
    }
    if(p == freep)
 941:	8b 3d c0 11 00 00    	mov    0x11c0,%edi
 947:	89 c2                	mov    %eax,%edx
 949:	39 d7                	cmp    %edx,%edi
 94b:	75 eb                	jne    938 <malloc+0x48>
  p = sbrk(nu * sizeof(Header));
 94d:	83 ec 0c             	sub    $0xc,%esp
 950:	ff 75 e4             	push   -0x1c(%ebp)
 953:	e8 83 fc ff ff       	call   5db <sbrk>
  if(p == (char*)-1)
 958:	83 c4 10             	add    $0x10,%esp
 95b:	83 f8 ff             	cmp    $0xffffffff,%eax
 95e:	74 1c                	je     97c <malloc+0x8c>
  hp->s.size = nu;
 960:	89 58 04             	mov    %ebx,0x4(%eax)
  free((void*)(hp + 1));
 963:	83 ec 0c             	sub    $0xc,%esp
 966:	83 c0 08             	add    $0x8,%eax
 969:	50                   	push   %eax
 96a:	e8 f1 fe ff ff       	call   860 <free>
  return freep;
 96f:	8b 15 c0 11 00 00    	mov    0x11c0,%edx
      if((p = morecore(nunits)) == 0)
 975:	83 c4 10             	add    $0x10,%esp
 978:	85 d2                	test   %edx,%edx
 97a:	75 bc                	jne    938 <malloc+0x48>
        return 0;
  }
}
 97c:	8d 65 f4             	lea    -0xc(%ebp),%esp
        return 0;
 97f:	31 c0                	xor    %eax,%eax
}
 981:	5b                   	pop    %ebx
 982:	5e                   	pop    %esi
 983:	5f                   	pop    %edi
 984:	5d                   	pop    %ebp
 985:	c3                   	ret    
    if(p->s.size >= nunits){
 986:	89 d0                	mov    %edx,%eax
 988:	89 fa                	mov    %edi,%edx
 98a:	8d b6 00 00 00 00    	lea    0x0(%esi),%esi
      if(p->s.size == nunits)
 990:	39 ce                	cmp    %ecx,%esi
 992:	74 4c                	je     9e0 <malloc+0xf0>
        p->s.size -= nunits;
 994:	29 f1                	sub    %esi,%ecx
 996:	89 48 04             	mov    %ecx,0x4(%eax)
        p += p->s.size;
 999:	8d 04 c8             	lea    (%eax,%ecx,8),%eax
        p->s.size = nunits;
 99c:	89 70 04             	mov    %esi,0x4(%eax)
      freep = prevp;
 99f:	89 15 c0 11 00 00    	mov    %edx,0x11c0
}
 9a5:	8d 65 f4             	lea    -0xc(%ebp),%esp
      return (void*)(p + 1);
 9a8:	83 c0 08             	add    $0x8,%eax
}
 9ab:	5b                   	pop    %ebx
 9ac:	5e                   	pop    %esi
 9ad:	5f                   	pop    %edi
 9ae:	5d                   	pop    %ebp
 9af:	c3                   	ret    
    base.s.ptr = freep = prevp = &base;
 9b0:	c7 05 c0 11 00 00 c4 	movl   $0x11c4,0x11c0
 9b7:	11 00 00 
    base.s.size = 0;
 9ba:	bf c4 11 00 00       	mov    $0x11c4,%edi
    base.s.ptr = freep = prevp = &base;
 9bf:	c7 05 c4 11 00 00 c4 	movl   $0x11c4,0x11c4
 9c6:	11 00 00 
  for(p = prevp->s.ptr; ; prevp = p, p = p->s.ptr){
 9c9:	89 fa                	mov    %edi,%edx
    base.s.size = 0;
 9cb:	c7 05 c8 11 00 00 00 	movl   $0x0,0x11c8
 9d2:	00 00 00 
    if(p->s.size >= nunits){
 9d5:	e9 42 ff ff ff       	jmp    91c <malloc+0x2c>
 9da:	8d b6 00 00 00 00    	lea    0x0(%esi),%esi
        prevp->s.ptr = p->s.ptr;
 9e0:	8b 08                	mov    (%eax),%ecx
 9e2:	89 0a                	mov    %ecx,(%edx)
 9e4:	eb b9                	jmp    99f <malloc+0xaf>
